; Function Attrs: nofree norecurse nosync nounwind memory(argmem: write) uwtable
define void @set_vector_val(i32 noundef %0, double noundef %1, ptr noundef writeonly captures(none) %2) local_unnamed_addr #10 {
  %4 = icmp sgt i32 %0, 0
  br i1 %4, label %.lr.ph.preheader, label %._crit_edge

.lr.ph.preheader:                                 ; preds = %3
  %wide.trip.count = zext nneg i32 %0 to i64
  br label %.lr.ph

.lr.ph:                                           ; preds = %.lr.ph.preheader, %.lr.ph
  %indvars.iv = phi i64 [ 0, %.lr.ph.preheader ], [ %indvars.iv.next, %.lr.ph ]
  %5 = getelementptr inbounds nuw double, ptr %2, i64 %indvars.iv
  store double %1, ptr %5, align 8, !tbaa !10
  %indvars.iv.next = add nuw nsw i64 %indvars.iv, 1
  %exitcond.not = icmp eq i64 %indvars.iv.next, %wide.trip.count
  br i1 %exitcond.not, label %._crit_edge, label %.lr.ph, !llvm.loop !78

._crit_edge:                                      ; preds = %.lr.ph, %3
  ret void
}